target datalayout = "e-m:e-p270:32:32-p271:32:32-p272:64:64-i64:64-i128:128-f80:128-n8:16:32:64-S128"
target triple = "x86_64-pc-linux-gnu"

%struct.GVJ_s = type { ptr, ptr, ptr, ptr, ptr, ptr, i32, ptr, ptr, ptr, ptr, i64, i64, ptr, i32, %struct.gvplugin_active_render_s, %struct.gvplugin_active_device_s, %struct.gvplugin_active_loadimage_t, ptr, %struct.pointf_s, i8, ptr, i32, ptr, i8, ptr, i32, i32, i32, %struct.point, %struct.point, %struct.point, %struct.point, %struct.point, i32, %struct.boxf, %struct.pointf_s, %struct.boxf, %struct.boxf, %struct.pointf_s, %struct.pointf_s, double, i32, %struct.pointf_s, %struct.boxf, %struct.pointf_s, %struct.pointf_s, i32, i32, %struct.box, %struct.box, %struct.pointf_s, %struct.pointf_s, %struct.pointf_s, i8, i8, i8, i8, i8, i8, %struct.pointf_s, %struct.pointf_s, ptr, ptr, ptr, ptr, ptr, ptr, i64, ptr }
%struct.gvplugin_active_render_s = type { ptr, i32, ptr, ptr }
%struct.gvplugin_active_device_s = type { ptr, i32, ptr, ptr }
%struct.gvplugin_active_loadimage_t = type { ptr, i32, ptr }
%struct.point = type { i32, i32 }
%struct.boxf = type { %struct.pointf_s, %struct.pointf_s }
%struct.box = type { %struct.point, %struct.point }
%struct.pointf_s = type { double, double }
%struct.color_s = type { %union.anon, i32 }
%union.anon = type { [4 x double] }
%struct.gvrender_engine_s = type { ptr, ptr, ptr, ptr, ptr, ptr, ptr, ptr, ptr, ptr, ptr, ptr, ptr, ptr, ptr, ptr, ptr, ptr, ptr, ptr, ptr, ptr, ptr, ptr, ptr, ptr, ptr, ptr, ptr, ptr }
%struct.obj_state_s = type { ptr, i32, %union.anon.0, i32, %struct.color_s, %struct.color_s, %struct.color_s, i32, double, i32, i32, double, ptr, double, double, double, ptr, ptr, ptr, ptr, ptr, ptr, ptr, ptr, ptr, ptr, ptr, ptr, ptr, ptr, ptr, ptr, ptr, i16, i32, i64, ptr, i64, ptr, ptr, i32, ptr, i32, ptr }
%union.anon.0 = type { ptr }

@stderr = external global ptr, align 8
@.str.14 = private unnamed_addr constant [58 x i8] c"integer overflow when trying to allocate %zu * %zu bytes\0A\00", align 1
@.str.15 = private unnamed_addr constant [49 x i8] c"out of memory when trying to allocate %zu bytes\0A\00", align 1

; Function Attrs: nounwind uwtable
define ptr @gvrender_ptf_A(ptr noundef %0, ptr noundef %1, ptr noundef %2, i64 noundef %3) #0 {
  %5 = alloca ptr, align 8
  %6 = alloca ptr, align 8
  %7 = alloca ptr, align 8
  %8 = alloca i64, align 8
  %9 = alloca double, align 8
  %10 = alloca %struct.pointf_s, align 8
  %11 = alloca %struct.pointf_s, align 8
  %12 = alloca i64, align 8
  %13 = alloca i64, align 8
  store ptr %0, ptr %5, align 8, !tbaa !3
  store ptr %1, ptr %6, align 8, !tbaa !84
  store ptr %2, ptr %7, align 8, !tbaa !84
  store i64 %3, ptr %8, align 8, !tbaa !86
  call void @llvm.lifetime.start.p0(i64 8, ptr %9) #15
  call void @llvm.lifetime.start.p0(i64 16, ptr %10) #15
  call void @llvm.lifetime.start.p0(i64 16, ptr %11) #15
  %14 = load ptr, ptr %5, align 8, !tbaa !3
  %15 = getelementptr inbounds nuw %struct.GVJ_s, ptr %14, i32 0, i32 52
  call void @llvm.memcpy.p0.p0.i64(ptr align 8 %10, ptr align 8 %15, i64 16, i1 false), !tbaa.struct !76
  %16 = load ptr, ptr %5, align 8, !tbaa !3
  %17 = getelementptr inbounds nuw %struct.GVJ_s, ptr %16, i32 0, i32 41
  %18 = load double, ptr %17, align 8, !tbaa !78
  %19 = load ptr, ptr %5, align 8, !tbaa !3
  %20 = getelementptr inbounds nuw %struct.GVJ_s, ptr %19, i32 0, i32 53
  %21 = getelementptr inbounds nuw %struct.pointf_s, ptr %20, i32 0, i32 0
  %22 = load double, ptr %21, align 8, !tbaa !79
  %23 = fmul double %18, %22
  %24 = getelementptr inbounds nuw %struct.pointf_s, ptr %11, i32 0, i32 0
  store double %23, ptr %24, align 8, !tbaa !80
  %25 = load ptr, ptr %5, align 8, !tbaa !3
  %26 = getelementptr inbounds nuw %struct.GVJ_s, ptr %25, i32 0, i32 41
  %27 = load double, ptr %26, align 8, !tbaa !78
  %28 = load ptr, ptr %5, align 8, !tbaa !3
  %29 = getelementptr inbounds nuw %struct.GVJ_s, ptr %28, i32 0, i32 53
  %30 = getelementptr inbounds nuw %struct.pointf_s, ptr %29, i32 0, i32 1
  %31 = load double, ptr %30, align 8, !tbaa !81
  %32 = fmul double %27, %31
  %33 = getelementptr inbounds nuw %struct.pointf_s, ptr %11, i32 0, i32 1
  store double %32, ptr %33, align 8, !tbaa !82
  %34 = load ptr, ptr %5, align 8, !tbaa !3
  %35 = getelementptr inbounds nuw %struct.GVJ_s, ptr %34, i32 0, i32 42
  %36 = load i32, ptr %35, align 8, !tbaa !83
  %37 = icmp ne i32 %36, 0
  br i1 %37, label %38, label %81

38:                                               ; preds = %4
  call void @llvm.lifetime.start.p0(i64 8, ptr %12) #15
  store i64 0, ptr %12, align 8, !tbaa !86
  br label %39

39:                                               ; preds = %77, %38
  %40 = load i64, ptr %12, align 8, !tbaa !86
  %41 = load i64, ptr %8, align 8, !tbaa !86
  %42 = icmp ult i64 %40, %41
  br i1 %42, label %44, label %43

43:                                               ; preds = %39
  call void @llvm.lifetime.end.p0(i64 8, ptr %12) #15
  br label %80

44:                                               ; preds = %39
  %45 = load ptr, ptr %6, align 8, !tbaa !84
  %46 = load i64, ptr %12, align 8, !tbaa !86
  %47 = getelementptr inbounds nuw %struct.pointf_s, ptr %45, i64 %46
  %48 = getelementptr inbounds nuw %struct.pointf_s, ptr %47, i32 0, i32 1
  %49 = load double, ptr %48, align 8, !tbaa !82
  %50 = getelementptr inbounds nuw %struct.pointf_s, ptr %10, i32 0, i32 1
  %51 = load double, ptr %50, align 8, !tbaa !82
  %52 = fadd double %49, %51
  %53 = fneg double %52
  %54 = getelementptr inbounds nuw %struct.pointf_s, ptr %11, i32 0, i32 0
  %55 = load double, ptr %54, align 8, !tbaa !80
  %56 = fmul double %53, %55
  store double %56, ptr %9, align 8, !tbaa !77
  %57 = load ptr, ptr %6, align 8, !tbaa !84
  %58 = load i64, ptr %12, align 8, !tbaa !86
  %59 = getelementptr inbounds nuw %struct.pointf_s, ptr %57, i64 %58
  %60 = getelementptr inbounds nuw %struct.pointf_s, ptr %59, i32 0, i32 0
  %61 = load double, ptr %60, align 8, !tbaa !80
  %62 = getelementptr inbounds nuw %struct.pointf_s, ptr %10, i32 0, i32 0
  %63 = load double, ptr %62, align 8, !tbaa !80
  %64 = fadd double %61, %63
  %65 = getelementptr inbounds nuw %struct.pointf_s, ptr %11, i32 0, i32 1
  %66 = load double, ptr %65, align 8, !tbaa !82
  %67 = fmul double %64, %66
  %68 = load ptr, ptr %7, align 8, !tbaa !84
  %69 = load i64, ptr %12, align 8, !tbaa !86
  %70 = getelementptr inbounds nuw %struct.pointf_s, ptr %68, i64 %69
  %71 = getelementptr inbounds nuw %struct.pointf_s, ptr %70, i32 0, i32 1
  store double %67, ptr %71, align 8, !tbaa !82
  %72 = load double, ptr %9, align 8, !tbaa !77
  %73 = load ptr, ptr %7, align 8, !tbaa !84
  %74 = load i64, ptr %12, align 8, !tbaa !86
  %75 = getelementptr inbounds nuw %struct.pointf_s, ptr %73, i64 %74
  %76 = getelementptr inbounds nuw %struct.pointf_s, ptr %75, i32 0, i32 0
  store double %72, ptr %76, align 8, !tbaa !80
  br label %77

77:                                               ; preds = %44
  %78 = load i64, ptr %12, align 8, !tbaa !86
  %79 = add i64 %78, 1
  store i64 %79, ptr %12, align 8, !tbaa !86
  br label %39, !llvm.loop !87

80:                                               ; preds = %43
  br label %122

81:                                               ; preds = %4
  call void @llvm.lifetime.start.p0(i64 8, ptr %13) #15
  store i64 0, ptr %13, align 8, !tbaa !86
  br label %82

82:                                               ; preds = %118, %81
  %83 = load i64, ptr %13, align 8, !tbaa !86
  %84 = load i64, ptr %8, align 8, !tbaa !86
  %85 = icmp ult i64 %83, %84
  br i1 %85, label %87, label %86

86:                                               ; preds = %82
  call void @llvm.lifetime.end.p0(i64 8, ptr %13) #15
  br label %121

87:                                               ; preds = %82
  %88 = load ptr, ptr %6, align 8, !tbaa !84
  %89 = load i64, ptr %13, align 8, !tbaa !86
  %90 = getelementptr inbounds nuw %struct.pointf_s, ptr %88, i64 %89
  %91 = getelementptr inbounds nuw %struct.pointf_s, ptr %90, i32 0, i32 0
  %92 = load double, ptr %91, align 8, !tbaa !80
  %93 = getelementptr inbounds nuw %struct.pointf_s, ptr %10, i32 0, i32 0
  %94 = load double, ptr %93, align 8, !tbaa !80
  %95 = fadd double %92, %94
  %96 = getelementptr inbounds nuw %struct.pointf_s, ptr %11, i32 0, i32 0
  %97 = load double, ptr %96, align 8, !tbaa !80
  %98 = fmul double %95, %97
  %99 = load ptr, ptr %7, align 8, !tbaa !84
  %100 = load i64, ptr %13, align 8, !tbaa !86
  %101 = getelementptr inbounds nuw %struct.pointf_s, ptr %99, i64 %100
  %102 = getelementptr inbounds nuw %struct.pointf_s, ptr %101, i32 0, i32 0
  store double %98, ptr %102, align 8, !tbaa !80
  %103 = load ptr, ptr %6, align 8, !tbaa !84
  %104 = load i64, ptr %13, align 8, !tbaa !86
  %105 = getelementptr inbounds nuw %struct.pointf_s, ptr %103, i64 %104
  %106 = getelementptr inbounds nuw %struct.pointf_s, ptr %105, i32 0, i32 1
  %107 = load double, ptr %106, align 8, !tbaa !82
  %108 = getelementptr inbounds nuw %struct.pointf_s, ptr %10, i32 0, i32 1
  %109 = load double, ptr %108, align 8, !tbaa !82
  %110 = fadd double %107, %109
  %111 = getelementptr inbounds nuw %struct.pointf_s, ptr %11, i32 0, i32 1
  %112 = load double, ptr %111, align 8, !tbaa !82
  %113 = fmul double %110, %112
  %114 = load ptr, ptr %7, align 8, !tbaa !84
  %115 = load i64, ptr %13, align 8, !tbaa !86
  %116 = getelementptr inbounds nuw %struct.pointf_s, ptr %114, i64 %115
  %117 = getelementptr inbounds nuw %struct.pointf_s, ptr %116, i32 0, i32 1
  store double %113, ptr %117, align 8, !tbaa !82
  br label %118

118:                                              ; preds = %87
  %119 = load i64, ptr %13, align 8, !tbaa !86
  %120 = add i64 %119, 1
  store i64 %120, ptr %13, align 8, !tbaa !86
  br label %82, !llvm.loop !89

121:                                              ; preds = %86
  br label %122

122:                                              ; preds = %121, %80
  %123 = load ptr, ptr %7, align 8, !tbaa !84
  call void @llvm.lifetime.end.p0(i64 16, ptr %11) #15
  call void @llvm.lifetime.end.p0(i64 16, ptr %10) #15
  call void @llvm.lifetime.end.p0(i64 8, ptr %9) #15
  ret ptr %123
}

; Function Attrs: inlinehint nounwind uwtable
define internal ptr @gv_calloc(i64 noundef %0, i64 noundef %1) #5 {
  %3 = alloca i64, align 8
  %4 = alloca i64, align 8
  %5 = alloca ptr, align 8
  store i64 %0, ptr %3, align 8, !tbaa !86
  store i64 %1, ptr %4, align 8, !tbaa !86
  %6 = load i64, ptr %3, align 8, !tbaa !86
  %7 = icmp ugt i64 %6, 0
  br i1 %7, label %8, label %18

8:                                                ; preds = %2
  %9 = load i64, ptr %3, align 8, !tbaa !86
  %10 = udiv i64 -1, %9
  %11 = load i64, ptr %4, align 8, !tbaa !86
  %12 = icmp ult i64 %10, %11
  br i1 %12, label %13, label %18

13:                                               ; preds = %8
  %14 = load ptr, ptr @stderr, align 8, !tbaa !140
  %15 = load i64, ptr %3, align 8, !tbaa !86
  %16 = load i64, ptr %4, align 8, !tbaa !86
  %17 = call i32 (ptr, ptr, ...) @fprintf(ptr noundef %14, ptr noundef @.str.14, i64 noundef %15, i64 noundef %16) #15
  call void @graphviz_exit(i32 noundef 1) #17
  unreachable

18:                                               ; preds = %8, %2
  call void @llvm.lifetime.start.p0(i64 8, ptr %5) #15
  %19 = load i64, ptr %3, align 8, !tbaa !86
  %20 = load i64, ptr %4, align 8, !tbaa !86
  %21 = call noalias ptr @calloc(i64 noundef %19, i64 noundef %20) #18
  store ptr %21, ptr %5, align 8, !tbaa !38
  %22 = load i64, ptr %3, align 8, !tbaa !86
  %23 = icmp ugt i64 %22, 0
  br i1 %23, label %24, label %36

24:                                               ; preds = %18
  %25 = load i64, ptr %4, align 8, !tbaa !86
  %26 = icmp ugt i64 %25, 0
  br i1 %26, label %27, label %36

27:                                               ; preds = %24
  %28 = load ptr, ptr %5, align 8, !tbaa !38
  %29 = icmp eq ptr %28, null
  br i1 %29, label %30, label %36

30:                                               ; preds = %27
  %31 = load ptr, ptr @stderr, align 8, !tbaa !140
  %32 = load i64, ptr %3, align 8, !tbaa !86
  %33 = load i64, ptr %4, align 8, !tbaa !86
  %34 = mul i64 %32, %33
  %35 = call i32 (ptr, ptr, ...) @fprintf(ptr noundef %31, ptr noundef @.str.15, i64 noundef %34) #15
  call void @graphviz_exit(i32 noundef 1) #17
  unreachable

36:                                               ; preds = %27, %24, %18
  %37 = load ptr, ptr %5, align 8, !tbaa !38
  call void @llvm.lifetime.end.p0(i64 8, ptr %5) #15
  ret ptr %37
}

; Function Attrs: nounwind uwtable
define void @gvrender_polyline(ptr noundef %0, ptr noundef %1, i64 noundef %2) #0 {
  %4 = alloca ptr, align 8
  %5 = alloca ptr, align 8
  %6 = alloca i64, align 8
  %7 = alloca ptr, align 8
  %8 = alloca ptr, align 8
  store ptr %0, ptr %4, align 8, !tbaa !3
  store ptr %1, ptr %5, align 8, !tbaa !84
  store i64 %2, ptr %6, align 8, !tbaa !86
  call void @llvm.lifetime.start.p0(i64 8, ptr %7) #15
  %9 = load ptr, ptr %4, align 8, !tbaa !3
  %10 = getelementptr inbounds nuw %struct.GVJ_s, ptr %9, i32 0, i32 15
  %11 = getelementptr inbounds nuw %struct.gvplugin_active_render_s, ptr %10, i32 0, i32 0
  %12 = load ptr, ptr %11, align 8, !tbaa !51
  store ptr %12, ptr %7, align 8, !tbaa !58
  %13 = load ptr, ptr %7, align 8, !tbaa !58
  %14 = icmp ne ptr %13, null
  br i1 %14, label %15, label %57

15:                                               ; preds = %3
  %16 = load ptr, ptr %7, align 8, !tbaa !58
  %17 = getelementptr inbounds nuw %struct.gvrender_engine_s, ptr %16, i32 0, i32 27
  %18 = load ptr, ptr %17, align 8, !tbaa !142
  %19 = icmp ne ptr %18, null
  br i1 %19, label %20, label %56

20:                                               ; preds = %15
  %21 = load ptr, ptr %4, align 8, !tbaa !3
  %22 = getelementptr inbounds nuw %struct.GVJ_s, ptr %21, i32 0, i32 4
  %23 = load ptr, ptr %22, align 8, !tbaa !116
  %24 = getelementptr inbounds nuw %struct.obj_state_s, ptr %23, i32 0, i32 9
  %25 = load i32, ptr %24, align 8, !tbaa !117
  %26 = icmp ne i32 %25, 0
  br i1 %26, label %27, label %56

27:                                               ; preds = %20
  %28 = load ptr, ptr %4, align 8, !tbaa !3
  %29 = getelementptr inbounds nuw %struct.GVJ_s, ptr %28, i32 0, i32 26
  %30 = load i32, ptr %29, align 8, !tbaa !50
  %31 = and i32 %30, 8192
  %32 = icmp ne i32 %31, 0
  br i1 %32, label %33, label %40

33:                                               ; preds = %27
  %34 = load ptr, ptr %7, align 8, !tbaa !58
  %35 = getelementptr inbounds nuw %struct.gvrender_engine_s, ptr %34, i32 0, i32 27
  %36 = load ptr, ptr %35, align 8, !tbaa !142
  %37 = load ptr, ptr %4, align 8, !tbaa !3
  %38 = load ptr, ptr %5, align 8, !tbaa !84
  %39 = load i64, ptr %6, align 8, !tbaa !86
  call void %36(ptr noundef %37, ptr noundef %38, i64 noundef %39)
  br label %55

40:                                               ; preds = %27
  call void @llvm.lifetime.start.p0(i64 8, ptr %8) #15
  %41 = load i64, ptr %6, align 8, !tbaa !86
  %42 = call ptr @gv_calloc(i64 noundef %41, i64 noundef 16)
  store ptr %42, ptr %8, align 8, !tbaa !84
  %43 = load ptr, ptr %4, align 8, !tbaa !3
  %44 = load ptr, ptr %5, align 8, !tbaa !84
  %45 = load ptr, ptr %8, align 8, !tbaa !84
  %46 = load i64, ptr %6, align 8, !tbaa !86
  %47 = call ptr @gvrender_ptf_A(ptr noundef %43, ptr noundef %44, ptr noundef %45, i64 noundef %46)
  %48 = load ptr, ptr %7, align 8, !tbaa !58
  %49 = getelementptr inbounds nuw %struct.gvrender_engine_s, ptr %48, i32 0, i32 27
  %50 = load ptr, ptr %49, align 8, !tbaa !142
  %51 = load ptr, ptr %4, align 8, !tbaa !3
  %52 = load ptr, ptr %8, align 8, !tbaa !84
  %53 = load i64, ptr %6, align 8, !tbaa !86
  call void %50(ptr noundef %51, ptr noundef %52, i64 noundef %53)
  %54 = load ptr, ptr %8, align 8, !tbaa !84
  call void @free(ptr noundef %54) #15
  call void @llvm.lifetime.end.p0(i64 8, ptr %8) #15
  br label %55

55:                                               ; preds = %40, %33
  br label %56

56:                                               ; preds = %55, %20, %15
  br label %57

57:                                               ; preds = %56, %3
  call void @llvm.lifetime.end.p0(i64 8, ptr %7) #15
  ret void
}