; Function Attrs: nounwind uwtable
define void @gvrender_polyline(ptr noundef %0, ptr noundef %1, i64 noundef %2) local_unnamed_addr #0 {
  %4 = getelementptr inbounds nuw i8, ptr %0, i64 120
  %5 = load ptr, ptr %4, align 8, !tbaa !47
  %.not = icmp eq ptr %5, null
  br i1 %.not, label %67, label %6

6:                                                ; preds = %3
  %7 = getelementptr inbounds nuw i8, ptr %5, i64 216
  %8 = load ptr, ptr %7, align 8, !tbaa !133
  %.not19 = icmp eq ptr %8, null
  br i1 %.not19, label %67, label %9

9:                                                ; preds = %6
  %10 = getelementptr inbounds nuw i8, ptr %0, i64 32
  %11 = load ptr, ptr %10, align 8, !tbaa !107
  %12 = getelementptr inbounds nuw i8, ptr %11, i64 168
  %13 = load i32, ptr %12, align 8, !tbaa !108
  %.not20 = icmp eq i32 %13, 0
  br i1 %.not20, label %67, label %14

14:                                               ; preds = %9
  %15 = getelementptr inbounds nuw i8, ptr %0, i64 280
  %16 = load i32, ptr %15, align 8, !tbaa !46
  %17 = and i32 %16, 8192
  %.not21 = icmp eq i32 %17, 0
  br i1 %.not21, label %19, label %18

18:                                               ; preds = %14
  tail call void %8(ptr noundef nonnull %0, ptr noundef %1, i64 noundef %2) #22
  br label %67

19:                                               ; preds = %14
  %.not.i = icmp eq i64 %2, 0
  br i1 %.not.i, label %.thread.i, label %21

.thread.i:                                        ; preds = %19
  %20 = tail call noalias ptr @calloc(i64 noundef 0, i64 noundef 16) #24
  br label %gv_calloc.exit

21:                                               ; preds = %19
  %mul.ov.i = icmp ugt i64 %2, 1152921504606846975
  br i1 %mul.ov.i, label %22, label %25

22:                                               ; preds = %21
  %23 = load ptr, ptr @stderr, align 8, !tbaa !131
  %24 = tail call i32 (ptr, ptr, ...) @fprintf(ptr noundef %23, ptr noundef nonnull @.str.14, i64 noundef %2, i64 noundef 16) #25
  tail call fastcc void @graphviz_exit() #26
  unreachable

25:                                               ; preds = %21
  %26 = tail call noalias ptr @calloc(i64 noundef %2, i64 noundef 16) #24
  %27 = icmp eq ptr %26, null
  br i1 %27, label %28, label %gv_calloc.exit

28:                                               ; preds = %25
  %29 = load ptr, ptr @stderr, align 8, !tbaa !131
  %30 = shl nuw i64 %2, 4
  %31 = tail call i32 (ptr, ptr, ...) @fprintf(ptr noundef %29, ptr noundef nonnull @.str.15, i64 noundef %30) #25
  tail call fastcc void @graphviz_exit() #26
  unreachable

gv_calloc.exit:                                   ; preds = %.thread.i, %25
  %32 = phi ptr [ %20, %.thread.i ], [ %26, %25 ]
  %33 = getelementptr inbounds nuw i8, ptr %0, i64 632
  %.sroa.014.0.copyload.i = load double, ptr %33, align 8, !tbaa !70
  %.sroa.516.0..sroa_idx.i = getelementptr inbounds nuw i8, ptr %0, i64 640
  %.sroa.516.0.copyload.i = load double, ptr %.sroa.516.0..sroa_idx.i, align 8, !tbaa !70
  %34 = getelementptr inbounds nuw i8, ptr %0, i64 480
  %35 = load double, ptr %34, align 8, !tbaa !71
  %36 = getelementptr inbounds nuw i8, ptr %0, i64 648
  %37 = load double, ptr %36, align 8, !tbaa !72
  %38 = fmul double %35, %37
  %39 = getelementptr inbounds nuw i8, ptr %0, i64 656
  %40 = load double, ptr %39, align 8, !tbaa !73
  %41 = fmul double %35, %40
  %42 = getelementptr inbounds nuw i8, ptr %0, i64 488
  %43 = load i32, ptr %42, align 8, !tbaa !74
  %.not.i22 = icmp eq i32 %43, 0
  br i1 %.not.i22, label %.preheader.i, label %.preheader36.i

.preheader36.i:                                   ; preds = %gv_calloc.exit
  br i1 %.not.i, label %gvrender_ptf_A.exit, label %.lr.ph.i

.preheader.i:                                     ; preds = %gv_calloc.exit
  br i1 %.not.i, label %gvrender_ptf_A.exit, label %.lr.ph40.i

.lr.ph.i:                                         ; preds = %.preheader36.i, %.lr.ph.i
  %.03538.i = phi i64 [ %55, %.lr.ph.i ], [ 0, %.preheader36.i ]
  %44 = getelementptr inbounds nuw %struct.pointf_s, ptr %1, i64 %.03538.i
  %45 = getelementptr inbounds nuw i8, ptr %44, i64 8
  %46 = load double, ptr %45, align 8, !tbaa !75
  %47 = fadd double %.sroa.516.0.copyload.i, %46
  %48 = fneg double %47
  %49 = fmul double %38, %48
  %50 = load double, ptr %44, align 8, !tbaa !76
  %51 = fadd double %.sroa.014.0.copyload.i, %50
  %52 = fmul double %41, %51
  %53 = getelementptr inbounds nuw %struct.pointf_s, ptr %32, i64 %.03538.i
  %54 = getelementptr inbounds nuw i8, ptr %53, i64 8
  store double %52, ptr %54, align 8, !tbaa !75
  store double %49, ptr %53, align 8, !tbaa !76
  %55 = add nuw i64 %.03538.i, 1
  %exitcond.not.i = icmp eq i64 %55, %2
  br i1 %exitcond.not.i, label %gvrender_ptf_A.exit, label %.lr.ph.i, !llvm.loop !77

.lr.ph40.i:                                       ; preds = %.preheader.i, %.lr.ph40.i
  %.039.i = phi i64 [ %66, %.lr.ph40.i ], [ 0, %.preheader.i ]
  %56 = getelementptr inbounds nuw %struct.pointf_s, ptr %1, i64 %.039.i
  %57 = load double, ptr %56, align 8, !tbaa !76
  %58 = fadd double %.sroa.014.0.copyload.i, %57
  %59 = fmul double %38, %58
  %60 = getelementptr inbounds nuw %struct.pointf_s, ptr %32, i64 %.039.i
  store double %59, ptr %60, align 8, !tbaa !76
  %61 = getelementptr inbounds nuw i8, ptr %56, i64 8
  %62 = load double, ptr %61, align 8, !tbaa !75
  %63 = fadd double %.sroa.516.0.copyload.i, %62
  %64 = fmul double %41, %63
  %65 = getelementptr inbounds nuw i8, ptr %60, i64 8
  store double %64, ptr %65, align 8, !tbaa !75
  %66 = add nuw i64 %.039.i, 1
  %exitcond44.not.i = icmp eq i64 %66, %2
  br i1 %exitcond44.not.i, label %gvrender_ptf_A.exit, label %.lr.ph40.i, !llvm.loop !79

gvrender_ptf_A.exit:                              ; preds = %.lr.ph.i, %.lr.ph40.i, %.preheader36.i, %.preheader.i
  tail call void %8(ptr noundef %0, ptr noundef %32, i64 noundef %2) #22
  tail call void @free(ptr noundef %32) #22
  br label %67

67:                                               ; preds = %6, %9, %gvrender_ptf_A.exit, %18, %3
  ret void
}